target datalayout = "e-m:e-p270:32:32-p271:32:32-p272:64:64-i64:64-i128:128-f80:128-n8:16:32:64-S128"
target triple = "x86_64-pc-linux-gnu"

%struct._ir_insn = type { %struct.anon, %union.anon.6 }
%struct.anon = type { %union.anon.0, %union.anon.5 }
%union.anon.0 = type { i32 }
%union.anon.5 = type { i32 }
%union.anon.6 = type { %union._ir_val }
%union._ir_val = type { double }
%struct._ir_ctx = type { ptr, i32, i32, i32, i32, i32, i32, i32, i32, i32, i32, %struct._ir_insn, ptr, ptr, ptr, i32, i32, i32, ptr, ptr, ptr, ptr, ptr, i32, i32, i64, i32, i32, i32, i64, i32, i32, i32, i32, ptr, ptr, ptr, ptr, ptr, ptr, %union.anon.14, ptr, i32, i32, i32, i64, i32, i32, i32, ptr, ptr, ptr, ptr, %struct._ir_strtab, [61 x i32], [14 x i32] }
%union.anon.14 = type { ptr }
%struct._ir_strtab = type { ptr, i32, i32, i32, i32, ptr, i32, i32 }
%struct._ir_backend_data = type { %struct._ir_reg_alloc_data, i32, ptr, ptr, i32, i32, i8, i8, i8, i8, i8 }
%struct._ir_reg_alloc_data = type { i32, i32, i32, ptr }

; Function Attrs: nounwind uwtable
define internal void @ir_emit_epilogue(ptr noundef %0) #0 {
  %2 = alloca ptr, align 8
  %3 = alloca ptr, align 8
  %4 = alloca ptr, align 8
  %5 = alloca i32, align 4
  %6 = alloca i32, align 4
  %7 = alloca i32, align 4
  %8 = alloca i8, align 1
  %9 = alloca i8, align 1
  store ptr %0, ptr %2, align 8
  %10 = load ptr, ptr %2, align 8
  %11 = getelementptr inbounds %struct._ir_ctx, ptr %10, i32 0, i32 40
  %12 = load ptr, ptr %11, align 8
  store ptr %12, ptr %3, align 8
  %13 = load ptr, ptr %3, align 8
  %14 = getelementptr inbounds %struct._ir_backend_data, ptr %13, i32 0, i32 2
  store ptr %14, ptr %4, align 8
  %15 = load ptr, ptr %2, align 8
  %16 = getelementptr inbounds %struct._ir_ctx, ptr %15, i32 0, i32 45
  %17 = load i64, ptr %16, align 8
  %18 = icmp ne i64 %17, 0
  br i1 %18, label %19, label %106

19:                                               ; preds = %1
  %20 = load ptr, ptr %2, align 8
  %21 = getelementptr inbounds %struct._ir_ctx, ptr %20, i32 0, i32 45
  %22 = load i64, ptr %21, align 8
  %23 = trunc i64 %22 to i32
  store i32 %23, ptr %7, align 4
  %24 = load ptr, ptr %2, align 8
  %25 = getelementptr inbounds %struct._ir_ctx, ptr %24, i32 0, i32 5
  %26 = load i32, ptr %25, align 8
  %27 = and i32 %26, 512
  %28 = icmp ne i32 %27, 0
  br i1 %28, label %29, label %30

29:                                               ; preds = %19
  store i32 0, ptr %5, align 4
  br label %38

30:                                               ; preds = %19
  %31 = load ptr, ptr %2, align 8
  %32 = getelementptr inbounds %struct._ir_ctx, ptr %31, i32 0, i32 43
  %33 = load i32, ptr %32, align 4
  %34 = load ptr, ptr %2, align 8
  %35 = getelementptr inbounds %struct._ir_ctx, ptr %34, i32 0, i32 44
  %36 = load i32, ptr %35, align 8
  %37 = add nsw i32 %33, %36
  store i32 %37, ptr %5, align 4
  br label %38

38:                                               ; preds = %30, %29
  store i32 0, ptr %6, align 4
  br label %39

39:                                               ; preds = %102, %38
  %40 = load i32, ptr %6, align 4
  %41 = icmp ult i32 %40, 32
  br i1 %41, label %42, label %105

42:                                               ; preds = %39
  %43 = load i32, ptr %7, align 4
  %44 = load i32, ptr %6, align 4
  %45 = shl i32 1, %44
  %46 = and i32 %43, %45
  %47 = icmp ne i32 %46, 0
  br i1 %47, label %48, label %101

48:                                               ; preds = %42
  %49 = load i32, ptr %6, align 4
  %50 = icmp ult i32 %49, 16
  br i1 %50, label %51, label %68

51:                                               ; preds = %48
  %52 = load ptr, ptr %2, align 8
  %53 = getelementptr inbounds %struct._ir_ctx, ptr %52, i32 0, i32 5
  %54 = load i32, ptr %53, align 8
  %55 = and i32 %54, 512
  %56 = icmp ne i32 %55, 0
  %57 = select i1 %56, i32 5, i32 4
  %58 = trunc i32 %57 to i8
  store i8 %58, ptr %8, align 1
  %59 = load i32, ptr %5, align 4
  %60 = sext i32 %59 to i64
  %61 = sub i64 %60, 8
  %62 = trunc i64 %61 to i32
  store i32 %62, ptr %5, align 4
  %63 = load ptr, ptr %4, align 8
  %64 = load i32, ptr %6, align 4
  %65 = load i8, ptr %8, align 1
  %66 = sext i8 %65 to i32
  %67 = load i32, ptr %5, align 4
  call void (ptr, i32, ...) @dasm_put(ptr noundef %63, i32 noundef 104, i32 noundef %64, i32 noundef %66, i32 noundef %67)
  br label %100

68:                                               ; preds = %48
  %69 = load ptr, ptr %2, align 8
  %70 = getelementptr inbounds %struct._ir_ctx, ptr %69, i32 0, i32 5
  %71 = load i32, ptr %70, align 8
  %72 = and i32 %71, 512
  %73 = icmp ne i32 %72, 0
  %74 = select i1 %73, i32 5, i32 4
  %75 = trunc i32 %74 to i8
  store i8 %75, ptr %9, align 1
  %76 = load i32, ptr %5, align 4
  %77 = sext i32 %76 to i64
  %78 = sub i64 %77, 8
  %79 = trunc i64 %78 to i32
  store i32 %79, ptr %5, align 4
  %80 = load ptr, ptr %2, align 8
  %81 = getelementptr inbounds %struct._ir_ctx, ptr %80, i32 0, i32 8
  %82 = load i32, ptr %81, align 4
  %83 = and i32 %82, 32
  %84 = icmp ne i32 %83, 0
  br i1 %84, label %85, label %92

85:                                               ; preds = %68
  %86 = load ptr, ptr %4, align 8
  %87 = load i32, ptr %6, align 4
  %88 = sub i32 %87, 16
  %89 = load i8, ptr %9, align 1
  %90 = sext i8 %89 to i32
  %91 = load i32, ptr %5, align 4
  call void (ptr, i32, ...) @dasm_put(ptr noundef %86, i32 noundef 468, i32 noundef %88, i32 noundef %90, i32 noundef %91)
  br label %99

92:                                               ; preds = %68
  %93 = load ptr, ptr %4, align 8
  %94 = load i32, ptr %6, align 4
  %95 = sub i32 %94, 16
  %96 = load i8, ptr %9, align 1
  %97 = sext i8 %96 to i32
  %98 = load i32, ptr %5, align 4
  call void (ptr, i32, ...) @dasm_put(ptr noundef %93, i32 noundef 706, i32 noundef %95, i32 noundef %97, i32 noundef %98)
  br label %99

99:                                               ; preds = %92, %85
  br label %100

100:                                              ; preds = %99, %51
  br label %101

101:                                              ; preds = %100, %42
  br label %102

102:                                              ; preds = %101
  %103 = load i32, ptr %6, align 4
  %104 = add i32 %103, 1
  store i32 %104, ptr %6, align 4
  br label %39

105:                                              ; preds = %39
  br label %106

106:                                              ; preds = %105, %1
  %107 = load ptr, ptr %2, align 8
  %108 = getelementptr inbounds %struct._ir_ctx, ptr %107, i32 0, i32 5
  %109 = load i32, ptr %108, align 8
  %110 = and i32 %109, 512
  %111 = icmp ne i32 %110, 0
  br i1 %111, label %112, label %114

112:                                              ; preds = %106
  %113 = load ptr, ptr %4, align 8
  call void (ptr, i32, ...) @dasm_put(ptr noundef %113, i32 noundef 2316, i32 noundef 5, i32 noundef 4, i32 noundef 5)
  br label %140

114:                                              ; preds = %106
  %115 = load ptr, ptr %2, align 8
  %116 = getelementptr inbounds %struct._ir_ctx, ptr %115, i32 0, i32 43
  %117 = load i32, ptr %116, align 4
  %118 = load ptr, ptr %2, align 8
  %119 = getelementptr inbounds %struct._ir_ctx, ptr %118, i32 0, i32 44
  %120 = load i32, ptr %119, align 8
  %121 = add nsw i32 %117, %120
  %122 = icmp ne i32 %121, 0
  br i1 %122, label %123, label %139

123:                                              ; preds = %114
  %124 = load ptr, ptr %2, align 8
  %125 = getelementptr inbounds %struct._ir_ctx, ptr %124, i32 0, i32 26
  %126 = load i32, ptr %125, align 8
  %127 = icmp ne i32 %126, 0
  br i1 %127, label %128, label %129

128:                                              ; preds = %123
  br label %138

129:                                              ; preds = %123
  %130 = load ptr, ptr %4, align 8
  %131 = load ptr, ptr %2, align 8
  %132 = getelementptr inbounds %struct._ir_ctx, ptr %131, i32 0, i32 43
  %133 = load i32, ptr %132, align 4
  %134 = load ptr, ptr %2, align 8
  %135 = getelementptr inbounds %struct._ir_ctx, ptr %134, i32 0, i32 44
  %136 = load i32, ptr %135, align 8
  %137 = add nsw i32 %133, %136
  call void (ptr, i32, ...) @dasm_put(ptr noundef %130, i32 noundef 2328, i32 noundef 4, i32 noundef %137)
  br label %138

138:                                              ; preds = %129, %128
  br label %139

139:                                              ; preds = %138, %114
  br label %140

140:                                              ; preds = %139, %112
  ret void
}