; Function Attrs: nounwind uwtable
define internal fastcc void @ir_emit_epilogue(ptr nocapture noundef readonly %0) unnamed_addr #1 {
  %2 = getelementptr inbounds i8, ptr %0, i64 248
  %3 = load ptr, ptr %2, align 8
  %4 = getelementptr inbounds i8, ptr %3, i64 32
  %5 = getelementptr inbounds i8, ptr %0, i64 280
  %6 = load i64, ptr %5, align 8
  %.not = icmp eq i64 %6, 0
  br i1 %.not, label %.loopexit, label %7

7:                                                ; preds = %1
  %8 = trunc i64 %6 to i32
  %9 = getelementptr inbounds i8, ptr %0, i64 24
  %10 = load i32, ptr %9, align 8
  %11 = and i32 %10, 512
  %.not39 = icmp eq i32 %11, 0
  br i1 %.not39, label %12, label %18

12:                                               ; preds = %7
  %13 = getelementptr inbounds i8, ptr %0, i64 268
  %14 = load i32, ptr %13, align 4
  %15 = getelementptr inbounds i8, ptr %0, i64 272
  %16 = load i32, ptr %15, align 8
  %17 = add nsw i32 %16, %14
  br label %18

18:                                               ; preds = %7, %12
  %.0 = phi i32 [ %17, %12 ], [ 0, %7 ]
  %19 = getelementptr inbounds i8, ptr %0, i64 36
  br label %20

20:                                               ; preds = %18, %37
  %.148 = phi i32 [ %.0, %18 ], [ %.2, %37 ]
  %.03647 = phi i32 [ 0, %18 ], [ %38, %37 ]
  %21 = shl nuw i32 1, %.03647
  %22 = and i32 %21, %8
  %.not43 = icmp eq i32 %22, 0
  br i1 %.not43, label %37, label %23

23:                                               ; preds = %20
  %24 = icmp ult i32 %.03647, 16
  %25 = load i32, ptr %9, align 8
  %26 = and i32 %25, 512
  %.not46 = icmp eq i32 %26, 0
  %27 = add i32 %.148, -8
  br i1 %24, label %28, label %30

28:                                               ; preds = %23
  %29 = select i1 %.not46, i32 4, i32 5
  tail call void (ptr, i32, ...) @dasm_put(ptr noundef nonnull %4, i32 noundef 104, i32 noundef %.03647, i32 noundef %29, i32 noundef %27)
  br label %37

30:                                               ; preds = %23
  %31 = load i32, ptr %19, align 4
  %32 = and i32 %31, 32
  %.not45 = icmp eq i32 %32, 0
  %33 = add nsw i32 %.03647, -16
  %34 = select i1 %.not46, i32 4, i32 5
  br i1 %.not45, label %36, label %35

35:                                               ; preds = %30
  tail call void (ptr, i32, ...) @dasm_put(ptr noundef nonnull %4, i32 noundef 468, i32 noundef %33, i32 noundef %34, i32 noundef %27)
  br label %37

36:                                               ; preds = %30
  tail call void (ptr, i32, ...) @dasm_put(ptr noundef nonnull %4, i32 noundef 706, i32 noundef %33, i32 noundef %34, i32 noundef %27)
  br label %37

37:                                               ; preds = %20, %35, %36, %28
  %.2 = phi i32 [ %27, %28 ], [ %27, %35 ], [ %27, %36 ], [ %.148, %20 ]
  %38 = add nuw nsw i32 %.03647, 1
  %exitcond.not = icmp eq i32 %38, 32
  br i1 %exitcond.not, label %.loopexit, label %20

.loopexit:                                        ; preds = %37, %1
  %39 = getelementptr inbounds i8, ptr %0, i64 24
  %40 = load i32, ptr %39, align 8
  %41 = and i32 %40, 512
  %.not40 = icmp eq i32 %41, 0
  br i1 %.not40, label %43, label %42

42:                                               ; preds = %.loopexit
  tail call void (ptr, i32, ...) @dasm_put(ptr noundef nonnull %4, i32 noundef 2316, i32 noundef 5, i32 noundef 4, i32 noundef 5)
  br label %53

43:                                               ; preds = %.loopexit
  %44 = getelementptr inbounds i8, ptr %0, i64 268
  %45 = load i32, ptr %44, align 4
  %46 = getelementptr inbounds i8, ptr %0, i64 272
  %47 = load i32, ptr %46, align 8
  %48 = add nsw i32 %47, %45
  %.not41 = icmp eq i32 %48, 0
  br i1 %.not41, label %53, label %49

49:                                               ; preds = %43
  %50 = getelementptr inbounds i8, ptr %0, i64 160
  %51 = load i32, ptr %50, align 8
  %.not42 = icmp eq i32 %51, 0
  br i1 %.not42, label %52, label %53

52:                                               ; preds = %49
  tail call void (ptr, i32, ...) @dasm_put(ptr noundef nonnull %4, i32 noundef 2328, i32 noundef 4, i32 noundef %48)
  br label %53

53:                                               ; preds = %43, %49, %52, %42
  ret void
}